target datalayout = "e-m:e-p270:32:32-p271:32:32-p272:64:64-i64:64-i128:128-f80:128-n8:16:32:64-S128"
target triple = "x86_64-pc-linux-gnu"

@hf_ieee80211_ext_bss_mu_mimo_capable_sta_count = internal global i32 0, align 4
@hf_ieee80211_ext_bss_ss_underutilization = internal global i32 0, align 4
@hf_ieee80211_ext_bss_observable_sec_20mhz_utilization = internal global i32 0, align 4
@hf_ieee80211_ext_bss_observable_sec_40mhz_utilization = internal global i32 0, align 4
@hf_ieee80211_ext_bss_observable_sec_80mhz_utilization = internal global i32 0, align 4

; Function Attrs: null_pointer_is_valid sspstrong uwtable
define internal i32 @dissect_ext_bss_load(ptr noundef %0, ptr noundef %1, ptr noundef %2, ptr noundef %3) #1 {
  %5 = alloca ptr, align 8
  %6 = alloca ptr, align 8
  %7 = alloca ptr, align 8
  %8 = alloca ptr, align 8
  %9 = alloca i32, align 4
  store ptr %0, ptr %5, align 8
  store ptr %1, ptr %6, align 8
  store ptr %2, ptr %7, align 8
  store ptr %3, ptr %8, align 8
  call void @llvm.lifetime.start.p0(i64 4, ptr %9) #19
  store i32 0, ptr %9, align 4
  %10 = load ptr, ptr %7, align 8
  %11 = load i32, ptr @hf_ieee80211_ext_bss_mu_mimo_capable_sta_count, align 4
  %12 = load ptr, ptr %5, align 8
  %13 = load i32, ptr %9, align 4
  %14 = call ptr @proto_tree_add_item(ptr noundef %10, i32 noundef %11, ptr noundef %12, i32 noundef %13, i32 noundef 2, i32 noundef -2147483648)
  %15 = load i32, ptr %9, align 4
  %16 = add i32 %15, 2
  store i32 %16, ptr %9, align 4
  %17 = load ptr, ptr %7, align 8
  %18 = load i32, ptr @hf_ieee80211_ext_bss_ss_underutilization, align 4
  %19 = load ptr, ptr %5, align 8
  %20 = load i32, ptr %9, align 4
  %21 = call ptr @proto_tree_add_item(ptr noundef %17, i32 noundef %18, ptr noundef %19, i32 noundef %20, i32 noundef 1, i32 noundef -2147483648)
  %22 = load i32, ptr %9, align 4
  %23 = add i32 %22, 1
  store i32 %23, ptr %9, align 4
  %24 = load ptr, ptr %7, align 8
  %25 = load i32, ptr @hf_ieee80211_ext_bss_observable_sec_20mhz_utilization, align 4
  %26 = load ptr, ptr %5, align 8
  %27 = load i32, ptr %9, align 4
  %28 = call ptr @proto_tree_add_item(ptr noundef %24, i32 noundef %25, ptr noundef %26, i32 noundef %27, i32 noundef 1, i32 noundef -2147483648)
  %29 = load i32, ptr %9, align 4
  %30 = add i32 %29, 1
  store i32 %30, ptr %9, align 4
  %31 = load ptr, ptr %7, align 8
  %32 = load i32, ptr @hf_ieee80211_ext_bss_observable_sec_40mhz_utilization, align 4
  %33 = load ptr, ptr %5, align 8
  %34 = load i32, ptr %9, align 4
  %35 = call ptr @proto_tree_add_item(ptr noundef %31, i32 noundef %32, ptr noundef %33, i32 noundef %34, i32 noundef 1, i32 noundef -2147483648)
  %36 = load i32, ptr %9, align 4
  %37 = add i32 %36, 1
  store i32 %37, ptr %9, align 4
  %38 = load ptr, ptr %7, align 8
  %39 = load i32, ptr @hf_ieee80211_ext_bss_observable_sec_80mhz_utilization, align 4
  %40 = load ptr, ptr %5, align 8
  %41 = load i32, ptr %9, align 4
  %42 = call ptr @proto_tree_add_item(ptr noundef %38, i32 noundef %39, ptr noundef %40, i32 noundef %41, i32 noundef 1, i32 noundef -2147483648)
  %43 = load i32, ptr %9, align 4
  %44 = add i32 %43, 1
  store i32 %44, ptr %9, align 4
  %45 = load i32, ptr %9, align 4
  call void @llvm.lifetime.end.p0(i64 4, ptr %9) #19
  ret i32 %45
}