; Function Attrs: null_pointer_is_valid sspstrong uwtable
define internal noundef i32 @dissect_ext_bss_load(ptr noundef %0, ptr readnone captures(none) %1, ptr noundef %2, ptr readnone captures(none) %3) #2 {
  %5 = load i32, ptr @hf_ieee80211_ext_bss_mu_mimo_capable_sta_count, align 4
  %6 = tail call ptr @proto_tree_add_item(ptr noundef %2, i32 noundef %5, ptr noundef %0, i32 noundef 0, i32 noundef 2, i32 noundef -2147483648)
  %7 = load i32, ptr @hf_ieee80211_ext_bss_ss_underutilization, align 4
  %8 = tail call ptr @proto_tree_add_item(ptr noundef %2, i32 noundef %7, ptr noundef %0, i32 noundef 2, i32 noundef 1, i32 noundef -2147483648)
  %9 = load i32, ptr @hf_ieee80211_ext_bss_observable_sec_20mhz_utilization, align 4
  %10 = tail call ptr @proto_tree_add_item(ptr noundef %2, i32 noundef %9, ptr noundef %0, i32 noundef 3, i32 noundef 1, i32 noundef -2147483648)
  %11 = load i32, ptr @hf_ieee80211_ext_bss_observable_sec_40mhz_utilization, align 4
  %12 = tail call ptr @proto_tree_add_item(ptr noundef %2, i32 noundef %11, ptr noundef %0, i32 noundef 4, i32 noundef 1, i32 noundef -2147483648)
  %13 = load i32, ptr @hf_ieee80211_ext_bss_observable_sec_80mhz_utilization, align 4
  %14 = tail call ptr @proto_tree_add_item(ptr noundef %2, i32 noundef %13, ptr noundef %0, i32 noundef 5, i32 noundef 1, i32 noundef -2147483648)
  ret i32 6
}